; ModuleID = '34/2225.c'
source_filename = "34/2225.c"
target datalayout = "e-m:e-p270:32:32-p271:32:32-p272:64:64-i64:64-f80:128-n8:16:32:64-S128"
target triple = "x86_64-pc-linux-gnu"

@.str = private unnamed_addr constant [3 x i8] c"%d\00", align 1
@.str.1 = private unnamed_addr constant [11 x i8] c"%d*3+1=%d\0A\00", align 1
@.str.2 = private unnamed_addr constant [9 x i8] c"%d/2=%d\0A\00", align 1
@.str.3 = private unnamed_addr constant [4 x i8] c"End\00", align 1

; Function Attrs: noinline nounwind uwtable
define dso_local i32 @main() #0 {
  %1 = alloca i32, align 4
  %2 = alloca i32, align 4
  %3 = alloca i32, align 4
  %4 = alloca i32, align 4
  %5 = alloca i32, align 4
  %6 = alloca i32, align 4
  %7 = alloca [10001 x i8], align 16
  %8 = alloca i8, align 1
  %9 = alloca i8, align 1
  store i32 0, i32* %1, align 4
  %10 = call i32 (i8*, ...) @__isoc99_scanf(i8* getelementptr inbounds ([3 x i8], [3 x i8]* @.str, i64 0, i64 0), i32* %4)
  br label %11

11:                                               ; preds = %33, %0
  %12 = load i32, i32* %4, align 4
  %13 = icmp ne i32 %12, 1
  br i1 %13, label %14, label %34

14:                                               ; preds = %11
  %15 = load i32, i32* %4, align 4
  %16 = srem i32 %15, 2
  %17 = icmp ne i32 %16, 0
  br i1 %17, label %18, label %26

18:                                               ; preds = %14
  %19 = load i32, i32* %4, align 4
  store i32 %19, i32* %5, align 4
  %20 = load i32, i32* %5, align 4
  %21 = mul nsw i32 %20, 3
  %22 = add nsw i32 %21, 1
  store i32 %22, i32* %4, align 4
  %23 = load i32, i32* %5, align 4
  %24 = load i32, i32* %4, align 4
  %25 = call i32 (i8*, ...) @printf(i8* getelementptr inbounds ([11 x i8], [11 x i8]* @.str.1, i64 0, i64 0), i32 %23, i32 %24)
  br label %33

26:                                               ; preds = %14
  %27 = load i32, i32* %4, align 4
  store i32 %27, i32* %6, align 4
  %28 = load i32, i32* %6, align 4
  %29 = sdiv i32 %28, 2
  store i32 %29, i32* %4, align 4
  %30 = load i32, i32* %6, align 4
  %31 = load i32, i32* %4, align 4
  %32 = call i32 (i8*, ...) @printf(i8* getelementptr inbounds ([9 x i8], [9 x i8]* @.str.2, i64 0, i64 0), i32 %30, i32 %31)
  br label %33

33:                                               ; preds = %26, %18
  br label %11

34:                                               ; preds = %11
  %35 = call i32 (i8*, ...) @printf(i8* getelementptr inbounds ([4 x i8], [4 x i8]* @.str.3, i64 0, i64 0))
  %36 = load i32, i32* %1, align 4
  ret i32 %36
}

declare dso_local i32 @__isoc99_scanf(i8*, ...) #1

declare dso_local i32 @printf(i8*, ...) #1


!llvm.module.flags = !{!0}
!llvm.ident = !{!1}

!0 = !{i32 1, !"wchar_size", i32 4}
!1 = !{!"clang version 10.0.0-4ubuntu1 "}
